target datalayout = "e-m:e-p270:32:32-p271:32:32-p272:64:64-i64:64-i128:128-f80:128-n8:16:32:64-S128"
target triple = "x86_64-unknown-linux-gnu"

%"struct.Imf_3_2::InputFile::Data" = type <{ %"class.std::mutex", %"class.Imf_3_2::Header", i32, i8, [3 x i8], ptr, ptr, ptr, i32, i32, i32, [4 x i8], %"class.Imf_3_2::FrameBuffer", ptr, ptr, i32, i32, i32, i32, ptr, i8, [7 x i8], ptr, ptr, i8, [7 x i8] }>
%"class.std::mutex" = type { %"class.std::__mutex_base" }
%"class.std::__mutex_base" = type { %union.pthread_mutex_t }
%union.pthread_mutex_t = type { %struct.__pthread_mutex_s }
%struct.__pthread_mutex_s = type { i32, i32, i32, i32, i32, i16, i16, %struct.__pthread_internal_list }
%struct.__pthread_internal_list = type { ptr, ptr }
%"class.Imf_3_2::Header" = type <{ %"class.std::map", i8, [7 x i8] }>
%"class.std::map" = type { %"class.std::_Rb_tree" }
%"class.std::_Rb_tree" = type { %"struct.std::_Rb_tree<Imf_3_2::Name, std::pair<const Imf_3_2::Name, Imf_3_2::Attribute *>, std::_Select1st<std::pair<const Imf_3_2::Name, Imf_3_2::Attribute *>>, std::less<Imf_3_2::Name>>::_Rb_tree_impl" }
%"struct.std::_Rb_tree<Imf_3_2::Name, std::pair<const Imf_3_2::Name, Imf_3_2::Attribute *>, std::_Select1st<std::pair<const Imf_3_2::Name, Imf_3_2::Attribute *>>, std::less<Imf_3_2::Name>>::_Rb_tree_impl" = type { %"struct.std::_Rb_tree_key_compare", %"struct.std::_Rb_tree_header" }
%"struct.std::_Rb_tree_key_compare" = type { %"struct.std::less" }
%"struct.std::less" = type { i8 }
%"struct.std::_Rb_tree_header" = type { %"struct.std::_Rb_tree_node_base", i64 }
%"struct.std::_Rb_tree_node_base" = type { i32, ptr, ptr, ptr }
%"class.Imf_3_2::FrameBuffer" = type { %"class.std::map.3" }
%"class.std::map.3" = type { %"class.std::_Rb_tree.4" }
%"class.std::_Rb_tree.4" = type { %"struct.std::_Rb_tree<Imf_3_2::Name, std::pair<const Imf_3_2::Name, Imf_3_2::Slice>, std::_Select1st<std::pair<const Imf_3_2::Name, Imf_3_2::Slice>>, std::less<Imf_3_2::Name>>::_Rb_tree_impl" }
%"struct.std::_Rb_tree<Imf_3_2::Name, std::pair<const Imf_3_2::Name, Imf_3_2::Slice>, std::_Select1st<std::pair<const Imf_3_2::Name, Imf_3_2::Slice>>, std::less<Imf_3_2::Name>>::_Rb_tree_impl" = type { %"struct.std::_Rb_tree_key_compare", %"struct.std::_Rb_tree_header" }
%"class.Imf_3_2::InputFile" = type { %"class.Imf_3_2::GenericInputFile", ptr }
%"class.Imf_3_2::GenericInputFile" = type { ptr }

@_ZTIN7Iex_3_26ArgExcE = external constant ptr
@.str.19 = private unnamed_addr constant [73 x i8] c"Cannot get a TiledInputFile pointer from an InputFile that is not tiled.\00", align 1

; Function Attrs: mustprogress uwtable
define hidden noundef ptr @_ZN7Imf_3_29InputFile5tFileEv(ptr noundef nonnull align 8 dereferenceable(16) %this) #4 align 2 personality ptr @__gxx_personality_v0 {
entry:
  %this.addr = alloca ptr, align 8
  %exn.slot = alloca ptr, align 8
  %ehselector.slot = alloca i32, align 4
  store ptr %this, ptr %this.addr, align 8
  %this1 = load ptr, ptr %this.addr, align 8
  %_data = getelementptr inbounds %"class.Imf_3_2::InputFile", ptr %this1, i32 0, i32 1
  %0 = load ptr, ptr %_data, align 8
  %isTiled = getelementptr inbounds %"struct.Imf_3_2::InputFile::Data", ptr %0, i32 0, i32 3
  %1 = load i8, ptr %isTiled, align 4
  %tobool = trunc i8 %1 to i1
  br i1 %tobool, label %if.end, label %if.then

if.then:                                          ; preds = %entry
  %exception = call ptr @__cxa_allocate_exception(i64 72) #3
  invoke void @_ZN7Iex_3_26ArgExcC1EPKc(ptr noundef nonnull align 8 dereferenceable(72) %exception, ptr noundef @.str.19)
          to label %invoke.cont unwind label %lpad

invoke.cont:                                      ; preds = %if.then
  call void @__cxa_throw(ptr %exception, ptr @_ZTIN7Iex_3_26ArgExcE, ptr @_ZN7Iex_3_26ArgExcD1Ev) #15
  unreachable

lpad:                                             ; preds = %if.then
  %2 = landingpad { ptr, i32 }
          cleanup
  %3 = extractvalue { ptr, i32 } %2, 0
  store ptr %3, ptr %exn.slot, align 8
  %4 = extractvalue { ptr, i32 } %2, 1
  store i32 %4, ptr %ehselector.slot, align 4
  call void @__cxa_free_exception(ptr %exception) #3
  br label %eh.resume

if.end:                                           ; preds = %entry
  %_data2 = getelementptr inbounds %"class.Imf_3_2::InputFile", ptr %this1, i32 0, i32 1
  %5 = load ptr, ptr %_data2, align 8
  %tFile = getelementptr inbounds %"struct.Imf_3_2::InputFile::Data", ptr %5, i32 0, i32 5
  %6 = load ptr, ptr %tFile, align 8
  ret ptr %6

eh.resume:                                        ; preds = %lpad
  %exn = load ptr, ptr %exn.slot, align 8
  %sel = load i32, ptr %ehselector.slot, align 4
  %lpad.val = insertvalue { ptr, i32 } poison, ptr %exn, 0
  %lpad.val3 = insertvalue { ptr, i32 } %lpad.val, i32 %sel, 1
  resume { ptr, i32 } %lpad.val3
}